; ModuleID = 'source-C-CXX/11/342.cpp'
source_filename = "source-C-CXX/11/342.cpp"
target datalayout = "e-m:e-p270:32:32-p271:32:32-p272:64:64-i64:64-f80:128-n8:16:32:64-S128"
target triple = "x86_64-pc-linux-gnu"

%"class.std::ios_base::Init" = type { i8 }
%"class.std::basic_istream" = type { i32 (...)**, i64, %"class.std::basic_ios" }
%"class.std::basic_ios" = type { %"class.std::ios_base", %"class.std::basic_ostream"*, i8, i8, %"class.std::basic_streambuf"*, %"class.std::ctype"*, %"class.std::num_put"*, %"class.std::num_get"* }
%"class.std::ios_base" = type { i32 (...)**, i64, i64, i32, i32, i32, %"struct.std::ios_base::_Callback_list"*, %"struct.std::ios_base::_Words", [8 x %"struct.std::ios_base::_Words"], i32, %"struct.std::ios_base::_Words"*, %"class.std::locale" }
%"struct.std::ios_base::_Callback_list" = type { %"struct.std::ios_base::_Callback_list"*, void (i32, %"class.std::ios_base"*, i32)*, i32, i32 }
%"struct.std::ios_base::_Words" = type { i8*, i64 }
%"class.std::locale" = type { %"class.std::locale::_Impl"* }
%"class.std::locale::_Impl" = type { i32, %"class.std::locale::facet"**, i64, %"class.std::locale::facet"**, i8** }
%"class.std::locale::facet" = type <{ i32 (...)**, i32, [4 x i8] }>
%"class.std::basic_ostream" = type { i32 (...)**, %"class.std::basic_ios" }
%"class.std::basic_streambuf" = type { i32 (...)**, i8*, i8*, i8*, i8*, i8*, i8*, %"class.std::locale" }
%"class.std::ctype" = type <{ %"class.std::locale::facet.base", [4 x i8], %struct.__locale_struct*, i8, [7 x i8], i32*, i32*, i16*, i8, [256 x i8], [256 x i8], i8, [6 x i8] }>
%"class.std::locale::facet.base" = type <{ i32 (...)**, i32 }>
%struct.__locale_struct = type { [13 x %struct.__locale_data*], i16*, i32*, i32*, [13 x i8*] }
%struct.__locale_data = type opaque
%"class.std::num_put" = type { %"class.std::locale::facet.base", [4 x i8] }
%"class.std::num_get" = type { %"class.std::locale::facet.base", [4 x i8] }

@_ZStL8__ioinit = internal global %"class.std::ios_base::Init" zeroinitializer, align 1
@__dso_handle = external hidden global i8
@_ZSt3cin = external global %"class.std::basic_istream", align 8
@_ZSt4cout = external global %"class.std::basic_ostream", align 8
@llvm.global_ctors = appending global [1 x { i32, void ()*, i8* }] [{ i32, void ()*, i8* } { i32 65535, void ()* @_GLOBAL__sub_I_342.cpp, i8* null }]

declare void @_ZNSt8ios_base4InitC1Ev(%"class.std::ios_base::Init"* nonnull align 1 dereferenceable(1)) unnamed_addr #0

; Function Attrs: nounwind
declare void @_ZNSt8ios_base4InitD1Ev(%"class.std::ios_base::Init"* nonnull align 1 dereferenceable(1)) unnamed_addr #1

; Function Attrs: nofree nounwind
declare i32 @__cxa_atexit(void (i8*)*, i8*, i8*) local_unnamed_addr #2

; Function Attrs: mustprogress norecurse sspstrong uwtable
define dso_local i32 @main() local_unnamed_addr #3 {
  %1 = alloca [16 x i32], align 16
  %2 = bitcast [16 x i32]* %1 to i8*
  br label %3

3:                                                ; preds = %100, %0
  call void @llvm.lifetime.start.p0i8(i64 64, i8* nonnull %2) #8
  br label %4

4:                                                ; preds = %97, %3
  %5 = phi i64 [ %99, %97 ], [ 0, %3 ]
  %6 = phi i32 [ %98, %97 ], [ 0, %3 ]
  %7 = getelementptr inbounds [16 x i32], [16 x i32]* %1, i64 0, i64 %5
  %8 = call nonnull align 8 dereferenceable(16) %"class.std::basic_istream"* @_ZNSirsERi(%"class.std::basic_istream"* nonnull align 8 dereferenceable(16) @_ZSt3cin, i32* nonnull align 4 dereferenceable(4) %7)
  %9 = load i32, i32* %7, align 4, !tbaa !5
  switch i32 %9, label %10 [
    i32 0, label %57
    i32 -1, label %104
  ]

10:                                               ; preds = %4
  %11 = shl nsw i32 %9, 1
  %12 = icmp eq i64 %5, 0
  br i1 %12, label %97, label %13

13:                                               ; preds = %10
  %14 = icmp ult i64 %5, 8
  br i1 %14, label %54, label %15

15:                                               ; preds = %13
  %16 = and i64 %5, -8
  %17 = insertelement <4 x i32> <i32 poison, i32 0, i32 0, i32 0>, i32 %6, i32 0
  %18 = insertelement <4 x i32> poison, i32 %9, i32 0
  %19 = shufflevector <4 x i32> %18, <4 x i32> poison, <4 x i32> zeroinitializer
  %20 = insertelement <4 x i32> poison, i32 %9, i32 0
  %21 = shufflevector <4 x i32> %20, <4 x i32> poison, <4 x i32> zeroinitializer
  %22 = insertelement <4 x i32> poison, i32 %11, i32 0
  %23 = shufflevector <4 x i32> %22, <4 x i32> poison, <4 x i32> zeroinitializer
  %24 = insertelement <4 x i32> poison, i32 %11, i32 0
  %25 = shufflevector <4 x i32> %24, <4 x i32> poison, <4 x i32> zeroinitializer
  br label %26

26:                                               ; preds = %26, %15
  %27 = phi i64 [ 0, %15 ], [ %48, %26 ]
  %28 = phi <4 x i32> [ %17, %15 ], [ %46, %26 ]
  %29 = phi <4 x i32> [ zeroinitializer, %15 ], [ %47, %26 ]
  %30 = getelementptr inbounds [16 x i32], [16 x i32]* %1, i64 0, i64 %27
  %31 = bitcast i32* %30 to <4 x i32>*
  %32 = load <4 x i32>, <4 x i32>* %31, align 16, !tbaa !5
  %33 = getelementptr inbounds i32, i32* %30, i64 4
  %34 = bitcast i32* %33 to <4 x i32>*
  %35 = load <4 x i32>, <4 x i32>* %34, align 16, !tbaa !5
  %36 = shl nsw <4 x i32> %32, <i32 1, i32 1, i32 1, i32 1>
  %37 = shl nsw <4 x i32> %35, <i32 1, i32 1, i32 1, i32 1>
  %38 = icmp eq <4 x i32> %19, %36
  %39 = icmp eq <4 x i32> %21, %37
  %40 = icmp eq <4 x i32> %32, %23
  %41 = icmp eq <4 x i32> %35, %25
  %42 = select <4 x i1> %38, <4 x i1> <i1 true, i1 true, i1 true, i1 true>, <4 x i1> %40
  %43 = select <4 x i1> %39, <4 x i1> <i1 true, i1 true, i1 true, i1 true>, <4 x i1> %41
  %44 = zext <4 x i1> %42 to <4 x i32>
  %45 = zext <4 x i1> %43 to <4 x i32>
  %46 = add <4 x i32> %28, %44
  %47 = add <4 x i32> %29, %45
  %48 = add nuw i64 %27, 8
  %49 = icmp eq i64 %48, %16
  br i1 %49, label %50, label %26, !llvm.loop !9

50:                                               ; preds = %26
  %51 = add <4 x i32> %47, %46
  %52 = call i32 @llvm.vector.reduce.add.v4i32(<4 x i32> %51)
  %53 = icmp eq i64 %5, %16
  br i1 %53, label %97, label %54

54:                                               ; preds = %13, %50
  %55 = phi i64 [ 0, %13 ], [ %16, %50 ]
  %56 = phi i32 [ %6, %13 ], [ %52, %50 ]
  br label %84

57:                                               ; preds = %4
  %58 = call nonnull align 8 dereferenceable(8) %"class.std::basic_ostream"* @_ZNSolsEi(%"class.std::basic_ostream"* nonnull align 8 dereferenceable(8) @_ZSt4cout, i32 %6)
  %59 = bitcast %"class.std::basic_ostream"* %58 to i8**
  %60 = load i8*, i8** %59, align 8, !tbaa !12
  %61 = getelementptr i8, i8* %60, i64 -24
  %62 = bitcast i8* %61 to i64*
  %63 = load i64, i64* %62, align 8
  %64 = bitcast %"class.std::basic_ostream"* %58 to i8*
  %65 = add nsw i64 %63, 240
  %66 = getelementptr inbounds i8, i8* %64, i64 %65
  %67 = bitcast i8* %66 to %"class.std::ctype"**
  %68 = load %"class.std::ctype"*, %"class.std::ctype"** %67, align 8, !tbaa !14
  %69 = icmp eq %"class.std::ctype"* %68, null
  br i1 %69, label %70, label %71

70:                                               ; preds = %57
  call void @_ZSt16__throw_bad_castv() #9
  unreachable

71:                                               ; preds = %57
  %72 = getelementptr inbounds %"class.std::ctype", %"class.std::ctype"* %68, i64 0, i32 8
  %73 = load i8, i8* %72, align 8, !tbaa !18
  %74 = icmp eq i8 %73, 0
  br i1 %74, label %78, label %75

75:                                               ; preds = %71
  %76 = getelementptr inbounds %"class.std::ctype", %"class.std::ctype"* %68, i64 0, i32 9, i64 10
  %77 = load i8, i8* %76, align 1, !tbaa !20
  br label %100

78:                                               ; preds = %71
  call void @_ZNKSt5ctypeIcE13_M_widen_initEv(%"class.std::ctype"* nonnull align 8 dereferenceable(570) %68)
  %79 = bitcast %"class.std::ctype"* %68 to i8 (%"class.std::ctype"*, i8)***
  %80 = load i8 (%"class.std::ctype"*, i8)**, i8 (%"class.std::ctype"*, i8)*** %79, align 8, !tbaa !12
  %81 = getelementptr inbounds i8 (%"class.std::ctype"*, i8)*, i8 (%"class.std::ctype"*, i8)** %80, i64 6
  %82 = load i8 (%"class.std::ctype"*, i8)*, i8 (%"class.std::ctype"*, i8)** %81, align 8
  %83 = call signext i8 %82(%"class.std::ctype"* nonnull align 8 dereferenceable(570) %68, i8 signext 10)
  br label %100

84:                                               ; preds = %54, %84
  %85 = phi i64 [ %95, %84 ], [ %55, %54 ]
  %86 = phi i32 [ %94, %84 ], [ %56, %54 ]
  %87 = getelementptr inbounds [16 x i32], [16 x i32]* %1, i64 0, i64 %85
  %88 = load i32, i32* %87, align 4, !tbaa !5
  %89 = shl nsw i32 %88, 1
  %90 = icmp eq i32 %9, %89
  %91 = icmp eq i32 %88, %11
  %92 = select i1 %90, i1 true, i1 %91
  %93 = zext i1 %92 to i32
  %94 = add nsw i32 %86, %93
  %95 = add nuw nsw i64 %85, 1
  %96 = icmp eq i64 %95, %5
  br i1 %96, label %97, label %84, !llvm.loop !21

97:                                               ; preds = %84, %50, %10
  %98 = phi i32 [ %6, %10 ], [ %52, %50 ], [ %94, %84 ]
  %99 = add nuw i64 %5, 1
  br label %4, !llvm.loop !23

100:                                              ; preds = %78, %75
  %101 = phi i8 [ %77, %75 ], [ %83, %78 ]
  %102 = call nonnull align 8 dereferenceable(8) %"class.std::basic_ostream"* @_ZNSo3putEc(%"class.std::basic_ostream"* nonnull align 8 dereferenceable(8) %58, i8 signext %101)
  %103 = call nonnull align 8 dereferenceable(8) %"class.std::basic_ostream"* @_ZNSo5flushEv(%"class.std::basic_ostream"* nonnull align 8 dereferenceable(8) %102)
  call void @llvm.lifetime.end.p0i8(i64 64, i8* nonnull %2) #8
  br label %3, !llvm.loop !24

104:                                              ; preds = %4
  call void @llvm.lifetime.end.p0i8(i64 64, i8* nonnull %2) #8
  ret i32 0
}

; Function Attrs: argmemonly mustprogress nofree nosync nounwind willreturn
declare void @llvm.lifetime.start.p0i8(i64 immarg, i8* nocapture) #4

declare nonnull align 8 dereferenceable(16) %"class.std::basic_istream"* @_ZNSirsERi(%"class.std::basic_istream"* nonnull align 8 dereferenceable(16), i32* nonnull align 4 dereferenceable(4)) local_unnamed_addr #0

declare nonnull align 8 dereferenceable(8) %"class.std::basic_ostream"* @_ZNSolsEi(%"class.std::basic_ostream"* nonnull align 8 dereferenceable(8), i32) local_unnamed_addr #0

; Function Attrs: argmemonly mustprogress nofree nosync nounwind willreturn
declare void @llvm.lifetime.end.p0i8(i64 immarg, i8* nocapture) #4

declare nonnull align 8 dereferenceable(8) %"class.std::basic_ostream"* @_ZNSo3putEc(%"class.std::basic_ostream"* nonnull align 8 dereferenceable(8), i8 signext) local_unnamed_addr #0

declare nonnull align 8 dereferenceable(8) %"class.std::basic_ostream"* @_ZNSo5flushEv(%"class.std::basic_ostream"* nonnull align 8 dereferenceable(8)) local_unnamed_addr #0

; Function Attrs: noreturn
declare void @_ZSt16__throw_bad_castv() local_unnamed_addr #5

declare void @_ZNKSt5ctypeIcE13_M_widen_initEv(%"class.std::ctype"* nonnull align 8 dereferenceable(570)) local_unnamed_addr #0

; Function Attrs: sspstrong uwtable
define internal void @_GLOBAL__sub_I_342.cpp() #6 section ".text.startup" {
  tail call void @_ZNSt8ios_base4InitC1Ev(%"class.std::ios_base::Init"* nonnull align 1 dereferenceable(1) @_ZStL8__ioinit)
  %1 = tail call i32 @__cxa_atexit(void (i8*)* bitcast (void (%"class.std::ios_base::Init"*)* @_ZNSt8ios_base4InitD1Ev to void (i8*)*), i8* getelementptr inbounds (%"class.std::ios_base::Init", %"class.std::ios_base::Init"* @_ZStL8__ioinit, i64 0, i32 0), i8* nonnull @__dso_handle) #8
  ret void
}

; Function Attrs: nofree nosync nounwind readnone willreturn
declare i32 @llvm.vector.reduce.add.v4i32(<4 x i32>) #7


!llvm.module.flags = !{!0, !1, !2, !3}
!llvm.ident = !{!4}

!0 = !{i32 1, !"wchar_size", i32 4}
!1 = !{i32 7, !"PIC Level", i32 2}
!2 = !{i32 7, !"PIE Level", i32 2}
!3 = !{i32 7, !"uwtable", i32 1}
!4 = !{!"clang version 13.0.0"}
!5 = !{!6, !6, i64 0}
!6 = !{!"int", !7, i64 0}
!7 = !{!"omnipotent char", !8, i64 0}
!8 = !{!"Simple C++ TBAA"}
!9 = distinct !{!9, !10, !11}
!10 = !{!"llvm.loop.mustprogress"}
!11 = !{!"llvm.loop.isvectorized", i32 1}
!12 = !{!13, !13, i64 0}
!13 = !{!"vtable pointer", !8, i64 0}
!14 = !{!15, !16, i64 240}
!15 = !{!"_ZTSSt9basic_iosIcSt11char_traitsIcEE", !16, i64 216, !7, i64 224, !17, i64 225, !16, i64 232, !16, i64 240, !16, i64 248, !16, i64 256}
!16 = !{!"any pointer", !7, i64 0}
!17 = !{!"bool", !7, i64 0}
!18 = !{!19, !7, i64 56}
!19 = !{!"_ZTSSt5ctypeIcE", !16, i64 16, !17, i64 24, !16, i64 32, !16, i64 40, !16, i64 48, !7, i64 56, !7, i64 57, !7, i64 313, !7, i64 569}
!20 = !{!7, !7, i64 0}
!21 = distinct !{!21, !10, !22, !11}
!22 = !{!"llvm.loop.unroll.runtime.disable"}
!23 = distinct !{!23, !10}
!24 = distinct !{!24, !10}
